target datalayout = "e-m:e-p270:32:32-p271:32:32-p272:64:64-i64:64-i128:128-f80:128-n8:16:32:64-S128"
target triple = "x86_64-pc-linux-gnu"

%"class.cv::utils::trace::details::Region" = type <{ ptr, i32, [4 x i8] }>
%"class.cv::Range" = type { i32, i32 }
%"class.cv::ParallelLoopBody" = type { ptr }
%"class.cv::impl::(anonymous namespace)::CvtColorLoop_Invoker.27" = type { %"class.cv::ParallelLoopBody", ptr, i64, ptr, i64, i32, ptr }

; Function Attrs: mustprogress nounwind uwtable
define linkonce_odr hidden noundef zeroext i8 @_ZNSt14numeric_limitsIhE3maxEv() #2 comdat align 2 {
  ret i8 -1
}

; Function Attrs: mustprogress nounwind uwtable
define internal noundef zeroext i8 @_ZN2cvL13saturate_castIhEET_i(i32 noundef %0) #2 {
  %2 = alloca i32, align 4
  store i32 %0, ptr %2, align 4
  %3 = load i32, ptr %2, align 4
  %4 = icmp ule i32 %3, 255
  br i1 %4, label %5, label %7

5:                                                ; preds = %1
  %6 = load i32, ptr %2, align 4
  br label %11

7:                                                ; preds = %1
  %8 = load i32, ptr %2, align 4
  %9 = icmp sgt i32 %8, 0
  %10 = select i1 %9, i32 255, i32 0
  br label %11

11:                                               ; preds = %7, %5
  %12 = phi i32 [ %6, %5 ], [ %10, %7 ]
  %13 = trunc i32 %12 to i8
  ret i8 %13
}

; Function Attrs: mustprogress nounwind uwtable
define internal noundef zeroext i8 @_ZN2cv4impl12_GLOBAL__N_112ColorChannelIhE3maxEv() #2 align 2 {
  %1 = call noundef zeroext i8 @_ZNSt14numeric_limitsIhE3maxEv() #10
  ret i8 %1
}

; Function Attrs: mustprogress nounwind uwtable
define linkonce_odr hidden void @_ZN2cv5utils5trace7details6RegionD2Ev(ptr noundef nonnull align 8 dereferenceable(12) %0) unnamed_addr #2 comdat align 2 personality ptr @__gxx_personality_v0 {
  %2 = alloca ptr, align 8
  store ptr %0, ptr %2, align 8
  %3 = load ptr, ptr %2, align 8
  %4 = getelementptr inbounds %"class.cv::utils::trace::details::Region", ptr %3, i32 0, i32 1
  %5 = load i32, ptr %4, align 8
  %6 = icmp ne i32 %5, 0
  br i1 %6, label %7, label %9

7:                                                ; preds = %1
  invoke void @_ZN2cv5utils5trace7details6Region7destroyEv(ptr noundef nonnull align 8 dereferenceable(12) %3)
          to label %8 unwind label %10

8:                                                ; preds = %7
  br label %9

9:                                                ; preds = %8, %1
  ret void

10:                                               ; preds = %7
  %11 = landingpad { ptr, i32 }
          catch ptr null
  %12 = extractvalue { ptr, i32 } %11, 0
  call void @__clang_call_terminate(ptr %12) #12
  unreachable
}

; Function Attrs: mustprogress uwtable
define internal void @_ZNK2cv3hal12cpu_baseline12_GLOBAL__N_110mRGBA2RGBAIhEclEPKhPhi(ptr noundef nonnull align 1 dereferenceable(1) %0, ptr noundef %1, ptr noundef %2, i32 noundef %3) #0 align 2 {
  %5 = alloca ptr, align 8
  %6 = alloca ptr, align 8
  %7 = alloca ptr, align 8
  %8 = alloca i32, align 4
  %9 = alloca i8, align 1
  %10 = alloca i32, align 4
  %11 = alloca i8, align 1
  %12 = alloca i8, align 1
  %13 = alloca i8, align 1
  %14 = alloca i8, align 1
  %15 = alloca i8, align 1
  store ptr %0, ptr %5, align 8
  store ptr %1, ptr %6, align 8
  store ptr %2, ptr %7, align 8
  store i32 %3, ptr %8, align 4
  %16 = call noundef zeroext i8 @_ZN2cv4impl12_GLOBAL__N_112ColorChannelIhE3maxEv()
  store i8 %16, ptr %9, align 1
  store i32 0, ptr %10, align 4
  br label %17

17:                                               ; preds = %176, %4
  %18 = load i32, ptr %10, align 4
  %19 = load i32, ptr %8, align 4
  %20 = icmp slt i32 %18, %19
  br i1 %20, label %21, label %183

21:                                               ; preds = %17
  %22 = load ptr, ptr %6, align 8
  %23 = getelementptr inbounds i8, ptr %22, i64 0
  %24 = load i8, ptr %23, align 1
  store i8 %24, ptr %11, align 1
  %25 = load ptr, ptr %6, align 8
  %26 = getelementptr inbounds i8, ptr %25, i64 1
  %27 = load i8, ptr %26, align 1
  store i8 %27, ptr %12, align 1
  %28 = load ptr, ptr %6, align 8
  %29 = getelementptr inbounds i8, ptr %28, i64 2
  %30 = load i8, ptr %29, align 1
  store i8 %30, ptr %13, align 1
  %31 = load ptr, ptr %6, align 8
  %32 = getelementptr inbounds i8, ptr %31, i64 3
  %33 = load i8, ptr %32, align 1
  store i8 %33, ptr %14, align 1
  %34 = load i8, ptr %14, align 1
  %35 = zext i8 %34 to i32
  %36 = sdiv i32 %35, 2
  %37 = trunc i32 %36 to i8
  store i8 %37, ptr %15, align 1
  %38 = load i8, ptr %14, align 1
  %39 = zext i8 %38 to i32
  %40 = icmp eq i32 %39, 0
  br i1 %40, label %41, label %42

41:                                               ; preds = %21
  br label %54

42:                                               ; preds = %21
  %43 = load i8, ptr %11, align 1
  %44 = zext i8 %43 to i32
  %45 = load i8, ptr %9, align 1
  %46 = zext i8 %45 to i32
  %47 = mul nsw i32 %44, %46
  %48 = load i8, ptr %15, align 1
  %49 = zext i8 %48 to i32
  %50 = add nsw i32 %47, %49
  %51 = load i8, ptr %14, align 1
  %52 = zext i8 %51 to i32
  %53 = sdiv i32 %50, %52
  br label %54

54:                                               ; preds = %42, %41
  %55 = phi i32 [ 0, %41 ], [ %53, %42 ]
  %56 = trunc i32 %55 to i8
  %57 = load ptr, ptr %7, align 8
  %58 = getelementptr inbounds i8, ptr %57, i64 0
  store i8 %56, ptr %58, align 1
  %59 = load i8, ptr %14, align 1
  %60 = zext i8 %59 to i32
  %61 = icmp eq i32 %60, 0
  br i1 %61, label %62, label %63

62:                                               ; preds = %54
  br label %75

63:                                               ; preds = %54
  %64 = load i8, ptr %12, align 1
  %65 = zext i8 %64 to i32
  %66 = load i8, ptr %9, align 1
  %67 = zext i8 %66 to i32
  %68 = mul nsw i32 %65, %67
  %69 = load i8, ptr %15, align 1
  %70 = zext i8 %69 to i32
  %71 = add nsw i32 %68, %70
  %72 = load i8, ptr %14, align 1
  %73 = zext i8 %72 to i32
  %74 = sdiv i32 %71, %73
  br label %75

75:                                               ; preds = %63, %62
  %76 = phi i32 [ 0, %62 ], [ %74, %63 ]
  %77 = trunc i32 %76 to i8
  %78 = load ptr, ptr %7, align 8
  %79 = getelementptr inbounds i8, ptr %78, i64 1
  store i8 %77, ptr %79, align 1
  %80 = load i8, ptr %14, align 1
  %81 = zext i8 %80 to i32
  %82 = icmp eq i32 %81, 0
  br i1 %82, label %83, label %84

83:                                               ; preds = %75
  br label %96

84:                                               ; preds = %75
  %85 = load i8, ptr %13, align 1
  %86 = zext i8 %85 to i32
  %87 = load i8, ptr %9, align 1
  %88 = zext i8 %87 to i32
  %89 = mul nsw i32 %86, %88
  %90 = load i8, ptr %15, align 1
  %91 = zext i8 %90 to i32
  %92 = add nsw i32 %89, %91
  %93 = load i8, ptr %14, align 1
  %94 = zext i8 %93 to i32
  %95 = sdiv i32 %92, %94
  br label %96

96:                                               ; preds = %84, %83
  %97 = phi i32 [ 0, %83 ], [ %95, %84 ]
  %98 = trunc i32 %97 to i8
  %99 = load ptr, ptr %7, align 8
  %100 = getelementptr inbounds i8, ptr %99, i64 2
  store i8 %98, ptr %100, align 1
  %101 = load i8, ptr %14, align 1
  %102 = load ptr, ptr %7, align 8
  %103 = getelementptr inbounds i8, ptr %102, i64 3
  store i8 %101, ptr %103, align 1
  %104 = load i8, ptr %14, align 1
  %105 = zext i8 %104 to i32
  %106 = icmp eq i32 %105, 0
  br i1 %106, label %107, label %108

107:                                              ; preds = %96
  br label %122

108:                                              ; preds = %96
  %109 = load i8, ptr %11, align 1
  %110 = zext i8 %109 to i32
  %111 = load i8, ptr %9, align 1
  %112 = zext i8 %111 to i32
  %113 = mul nsw i32 %110, %112
  %114 = load i8, ptr %15, align 1
  %115 = zext i8 %114 to i32
  %116 = add nsw i32 %113, %115
  %117 = load i8, ptr %14, align 1
  %118 = zext i8 %117 to i32
  %119 = sdiv i32 %116, %118
  %120 = call noundef zeroext i8 @_ZN2cvL13saturate_castIhEET_i(i32 noundef %119)
  %121 = zext i8 %120 to i32
  br label %122

122:                                              ; preds = %108, %107
  %123 = phi i32 [ 0, %107 ], [ %121, %108 ]
  %124 = trunc i32 %123 to i8
  %125 = load ptr, ptr %7, align 8
  %126 = getelementptr inbounds i8, ptr %125, i64 0
  store i8 %124, ptr %126, align 1
  %127 = load i8, ptr %14, align 1
  %128 = zext i8 %127 to i32
  %129 = icmp eq i32 %128, 0
  br i1 %129, label %130, label %131

130:                                              ; preds = %122
  br label %145

131:                                              ; preds = %122
  %132 = load i8, ptr %12, align 1
  %133 = zext i8 %132 to i32
  %134 = load i8, ptr %9, align 1
  %135 = zext i8 %134 to i32
  %136 = mul nsw i32 %133, %135
  %137 = load i8, ptr %15, align 1
  %138 = zext i8 %137 to i32
  %139 = add nsw i32 %136, %138
  %140 = load i8, ptr %14, align 1
  %141 = zext i8 %140 to i32
  %142 = sdiv i32 %139, %141
  %143 = call noundef zeroext i8 @_ZN2cvL13saturate_castIhEET_i(i32 noundef %142)
  %144 = zext i8 %143 to i32
  br label %145

145:                                              ; preds = %131, %130
  %146 = phi i32 [ 0, %130 ], [ %144, %131 ]
  %147 = trunc i32 %146 to i8
  %148 = load ptr, ptr %7, align 8
  %149 = getelementptr inbounds i8, ptr %148, i64 1
  store i8 %147, ptr %149, align 1
  %150 = load i8, ptr %14, align 1
  %151 = zext i8 %150 to i32
  %152 = icmp eq i32 %151, 0
  br i1 %152, label %153, label %154

153:                                              ; preds = %145
  br label %168

154:                                              ; preds = %145
  %155 = load i8, ptr %13, align 1
  %156 = zext i8 %155 to i32
  %157 = load i8, ptr %9, align 1
  %158 = zext i8 %157 to i32
  %159 = mul nsw i32 %156, %158
  %160 = load i8, ptr %15, align 1
  %161 = zext i8 %160 to i32
  %162 = add nsw i32 %159, %161
  %163 = load i8, ptr %14, align 1
  %164 = zext i8 %163 to i32
  %165 = sdiv i32 %162, %164
  %166 = call noundef zeroext i8 @_ZN2cvL13saturate_castIhEET_i(i32 noundef %165)
  %167 = zext i8 %166 to i32
  br label %168

168:                                              ; preds = %154, %153
  %169 = phi i32 [ 0, %153 ], [ %167, %154 ]
  %170 = trunc i32 %169 to i8
  %171 = load ptr, ptr %7, align 8
  %172 = getelementptr inbounds i8, ptr %171, i64 2
  store i8 %170, ptr %172, align 1
  %173 = load i8, ptr %14, align 1
  %174 = load ptr, ptr %7, align 8
  %175 = getelementptr inbounds i8, ptr %174, i64 3
  store i8 %173, ptr %175, align 1
  br label %176

176:                                              ; preds = %168
  %177 = load i32, ptr %10, align 4
  %178 = add nsw i32 %177, 1
  store i32 %178, ptr %10, align 4
  %179 = load ptr, ptr %6, align 8
  %180 = getelementptr inbounds i8, ptr %179, i64 4
  store ptr %180, ptr %6, align 8
  %181 = load ptr, ptr %7, align 8
  %182 = getelementptr inbounds i8, ptr %181, i64 4
  store ptr %182, ptr %7, align 8
  br label %17, !llvm.loop !37

183:                                              ; preds = %17
  ret void
}

; Function Attrs: mustprogress uwtable
define internal void @_ZNK2cv4impl12_GLOBAL__N_120CvtColorLoop_InvokerINS_3hal12cpu_baseline12_GLOBAL__N_110mRGBA2RGBAIhEEEclERKNS_5RangeE(ptr noundef nonnull align 8 dereferenceable(56) %0, ptr noundef nonnull align 4 dereferenceable(8) %1) unnamed_addr #0 align 2 personality ptr @__gxx_personality_v0 {
  %3 = alloca ptr, align 8
  %4 = alloca ptr, align 8
  %5 = alloca %"class.cv::utils::trace::details::Region", align 8
  %6 = alloca ptr, align 8
  %7 = alloca ptr, align 8
  %8 = alloca i32, align 4
  %9 = alloca ptr, align 8
  %10 = alloca i32, align 4
  store ptr %0, ptr %3, align 8
  store ptr %1, ptr %4, align 8
  %11 = load ptr, ptr %3, align 8
  call void @_ZN2cv5utils5trace7details6RegionC1ERKNS3_21LocationStaticStorageE(ptr noundef nonnull align 8 dereferenceable(12) %5, ptr noundef nonnull align 8 dereferenceable(32) @_ZZNK2cv4impl12_GLOBAL__N_120CvtColorLoop_InvokerINS_3hal12cpu_baseline12_GLOBAL__N_110mRGBA2RGBAIhEEEclERKNS_5RangeEE25__cv_trace_location_fn146)
  %12 = getelementptr inbounds %"class.cv::impl::(anonymous namespace)::CvtColorLoop_Invoker.27", ptr %11, i32 0, i32 1
  %13 = load ptr, ptr %12, align 8
  %14 = load ptr, ptr %4, align 8
  %15 = getelementptr inbounds %"class.cv::Range", ptr %14, i32 0, i32 0
  %16 = load i32, ptr %15, align 4
  %17 = sext i32 %16 to i64
  %18 = getelementptr inbounds %"class.cv::impl::(anonymous namespace)::CvtColorLoop_Invoker.27", ptr %11, i32 0, i32 2
  %19 = load i64, ptr %18, align 8
  %20 = mul i64 %17, %19
  %21 = getelementptr inbounds i8, ptr %13, i64 %20
  store ptr %21, ptr %6, align 8
  %22 = getelementptr inbounds %"class.cv::impl::(anonymous namespace)::CvtColorLoop_Invoker.27", ptr %11, i32 0, i32 3
  %23 = load ptr, ptr %22, align 8
  %24 = load ptr, ptr %4, align 8
  %25 = getelementptr inbounds %"class.cv::Range", ptr %24, i32 0, i32 0
  %26 = load i32, ptr %25, align 4
  %27 = sext i32 %26 to i64
  %28 = getelementptr inbounds %"class.cv::impl::(anonymous namespace)::CvtColorLoop_Invoker.27", ptr %11, i32 0, i32 4
  %29 = load i64, ptr %28, align 8
  %30 = mul i64 %27, %29
  %31 = getelementptr inbounds i8, ptr %23, i64 %30
  store ptr %31, ptr %7, align 8
  %32 = load ptr, ptr %4, align 8
  %33 = getelementptr inbounds %"class.cv::Range", ptr %32, i32 0, i32 0
  %34 = load i32, ptr %33, align 4
  store i32 %34, ptr %8, align 4
  br label %35

35:                                               ; preds = %49, %2
  %36 = load i32, ptr %8, align 4
  %37 = load ptr, ptr %4, align 8
  %38 = getelementptr inbounds %"class.cv::Range", ptr %37, i32 0, i32 1
  %39 = load i32, ptr %38, align 4
  %40 = icmp slt i32 %36, %39
  br i1 %40, label %41, label %64

41:                                               ; preds = %35
  %42 = getelementptr inbounds %"class.cv::impl::(anonymous namespace)::CvtColorLoop_Invoker.27", ptr %11, i32 0, i32 6
  %43 = load ptr, ptr %42, align 8
  %44 = load ptr, ptr %6, align 8
  %45 = load ptr, ptr %7, align 8
  %46 = getelementptr inbounds %"class.cv::impl::(anonymous namespace)::CvtColorLoop_Invoker.27", ptr %11, i32 0, i32 5
  %47 = load i32, ptr %46, align 8
  invoke void @_ZNK2cv3hal12cpu_baseline12_GLOBAL__N_110mRGBA2RGBAIhEclEPKhPhi(ptr noundef nonnull align 1 dereferenceable(1) %43, ptr noundef %44, ptr noundef %45, i32 noundef %47)
          to label %48 unwind label %60

48:                                               ; preds = %41
  br label %49

49:                                               ; preds = %48
  %50 = load i32, ptr %8, align 4
  %51 = add nsw i32 %50, 1
  store i32 %51, ptr %8, align 4
  %52 = getelementptr inbounds %"class.cv::impl::(anonymous namespace)::CvtColorLoop_Invoker.27", ptr %11, i32 0, i32 2
  %53 = load i64, ptr %52, align 8
  %54 = load ptr, ptr %6, align 8
  %55 = getelementptr inbounds i8, ptr %54, i64 %53
  store ptr %55, ptr %6, align 8
  %56 = getelementptr inbounds %"class.cv::impl::(anonymous namespace)::CvtColorLoop_Invoker.27", ptr %11, i32 0, i32 4
  %57 = load i64, ptr %56, align 8
  %58 = load ptr, ptr %7, align 8
  %59 = getelementptr inbounds i8, ptr %58, i64 %57
  store ptr %59, ptr %7, align 8
  br label %35, !llvm.loop !36

60:                                               ; preds = %41
  %61 = landingpad { ptr, i32 }
          cleanup
  %62 = extractvalue { ptr, i32 } %61, 0
  store ptr %62, ptr %9, align 8
  %63 = extractvalue { ptr, i32 } %61, 1
  store i32 %63, ptr %10, align 4
  call void @_ZN2cv5utils5trace7details6RegionD2Ev(ptr noundef nonnull align 8 dereferenceable(12) %5) #10
  br label %65

64:                                               ; preds = %35
  call void @_ZN2cv5utils5trace7details6RegionD2Ev(ptr noundef nonnull align 8 dereferenceable(12) %5) #10
  ret void

65:                                               ; preds = %60
  %66 = load ptr, ptr %9, align 8
  %67 = load i32, ptr %10, align 4
  %68 = insertvalue { ptr, i32 } poison, ptr %66, 0
  %69 = insertvalue { ptr, i32 } %68, i32 %67, 1
  resume { ptr, i32 } %69
}