; Function Attrs: mustprogress uwtable
define internal void @_ZNK2cv4impl12_GLOBAL__N_120CvtColorLoop_InvokerINS_3hal12cpu_baseline12_GLOBAL__N_110mRGBA2RGBAIhEEEclERKNS_5RangeE(ptr nocapture noundef nonnull readonly align 8 dereferenceable(56) %0, ptr nocapture noundef nonnull readonly align 4 dereferenceable(8) %1) unnamed_addr #0 align 2 personality ptr @__gxx_personality_v0 {
  %3 = alloca %"class.cv::utils::trace::details::Region", align 8
  call void @_ZN2cv5utils5trace7details6RegionC1ERKNS3_21LocationStaticStorageE(ptr noundef nonnull align 8 dereferenceable(12) %3, ptr noundef nonnull align 8 dereferenceable(32) @_ZZNK2cv4impl12_GLOBAL__N_120CvtColorLoop_InvokerINS_3hal12cpu_baseline12_GLOBAL__N_110mRGBA2RGBAIhEEEclERKNS_5RangeEE25__cv_trace_location_fn146)
  %4 = load i32, ptr %1, align 4
  %5 = getelementptr inbounds i8, ptr %0, i64 16
  %6 = getelementptr inbounds i8, ptr %0, i64 32
  %7 = getelementptr inbounds i8, ptr %1, i64 4
  %8 = load i32, ptr %7, align 4
  %9 = icmp slt i32 %4, %8
  br i1 %9, label %.lr.ph, label %._crit_edge

.lr.ph:                                           ; preds = %2
  %10 = getelementptr inbounds i8, ptr %0, i64 40
  %11 = load i32, ptr %10, align 8
  %12 = icmp sgt i32 %11, 0
  br i1 %12, label %.lr.ph.split.preheader, label %._crit_edge

.lr.ph.split.preheader:                           ; preds = %.lr.ph
  %13 = getelementptr inbounds i8, ptr %0, i64 8
  %14 = load ptr, ptr %13, align 8
  %15 = load i64, ptr %5, align 8
  %16 = sext i32 %4 to i64
  %17 = mul i64 %15, %16
  %18 = getelementptr inbounds i8, ptr %14, i64 %17
  %19 = getelementptr inbounds i8, ptr %0, i64 24
  %20 = load ptr, ptr %19, align 8
  %21 = load i64, ptr %6, align 8
  %22 = mul i64 %21, %16
  %23 = getelementptr inbounds i8, ptr %20, i64 %22
  br label %.lr.ph.split

.lr.ph.split:                                     ; preds = %.lr.ph.split.preheader, %_ZNK2cv3hal12cpu_baseline12_GLOBAL__N_110mRGBA2RGBAIhEclEPKhPhi.exit
  %24 = phi i32 [ %71, %_ZNK2cv3hal12cpu_baseline12_GLOBAL__N_110mRGBA2RGBAIhEclEPKhPhi.exit ], [ %8, %.lr.ph.split.preheader ]
  %25 = phi i64 [ %72, %_ZNK2cv3hal12cpu_baseline12_GLOBAL__N_110mRGBA2RGBAIhEclEPKhPhi.exit ], [ %21, %.lr.ph.split.preheader ]
  %26 = phi i64 [ %73, %_ZNK2cv3hal12cpu_baseline12_GLOBAL__N_110mRGBA2RGBAIhEclEPKhPhi.exit ], [ %15, %.lr.ph.split.preheader ]
  %.016 = phi ptr [ %75, %_ZNK2cv3hal12cpu_baseline12_GLOBAL__N_110mRGBA2RGBAIhEclEPKhPhi.exit ], [ %18, %.lr.ph.split.preheader ]
  %.01215 = phi ptr [ %76, %_ZNK2cv3hal12cpu_baseline12_GLOBAL__N_110mRGBA2RGBAIhEclEPKhPhi.exit ], [ %23, %.lr.ph.split.preheader ]
  %.01314 = phi i32 [ %74, %_ZNK2cv3hal12cpu_baseline12_GLOBAL__N_110mRGBA2RGBAIhEclEPKhPhi.exit ], [ %4, %.lr.ph.split.preheader ]
  %27 = load i32, ptr %10, align 8
  %28 = icmp sgt i32 %27, 0
  br i1 %28, label %.lr.ph.i, label %_ZNK2cv3hal12cpu_baseline12_GLOBAL__N_110mRGBA2RGBAIhEclEPKhPhi.exit

.lr.ph.i:                                         ; preds = %.lr.ph.split, %64
  %.020.i = phi ptr [ %69, %64 ], [ %.016, %.lr.ph.split ]
  %.04919.i = phi ptr [ %70, %64 ], [ %.01215, %.lr.ph.split ]
  %.05018.i = phi i32 [ %68, %64 ], [ 0, %.lr.ph.split ]
  %29 = getelementptr inbounds i8, ptr %.020.i, i64 3
  %30 = load i8, ptr %29, align 1
  %31 = icmp eq i8 %30, 0
  br i1 %31, label %.thread2.i, label %34

.thread2.i:                                       ; preds = %.lr.ph.i
  %32 = getelementptr inbounds i8, ptr %.04919.i, i64 2
  %33 = getelementptr inbounds i8, ptr %.04919.i, i64 3
  store i32 0, ptr %.04919.i, align 1
  br label %64

34:                                               ; preds = %.lr.ph.i
  %35 = lshr i8 %30, 1
  %36 = getelementptr inbounds i8, ptr %.020.i, i64 2
  %37 = load i8, ptr %36, align 1
  %38 = getelementptr inbounds i8, ptr %.020.i, i64 1
  %39 = load i8, ptr %38, align 1
  %40 = load i8, ptr %.020.i, align 1
  %41 = zext i8 %40 to i32
  %42 = mul nuw nsw i32 %41, 255
  %43 = zext nneg i8 %35 to i32
  %44 = add nuw nsw i32 %42, %43
  %.lhs.trunc.i = trunc nuw i32 %44 to i16
  %.rhs.trunc.i = zext i8 %30 to i16
  %45 = udiv i16 %.lhs.trunc.i, %.rhs.trunc.i
  %46 = zext i8 %39 to i32
  %47 = mul nuw nsw i32 %46, 255
  %48 = add nuw nsw i32 %47, %43
  %.lhs.trunc3.i = trunc nuw i32 %48 to i16
  %49 = udiv i16 %.lhs.trunc3.i, %.rhs.trunc.i
  %50 = getelementptr inbounds i8, ptr %.04919.i, i64 1
  %51 = zext i8 %37 to i16
  %52 = mul nuw i16 %51, 255
  %53 = zext nneg i8 %35 to i16
  %.lhs.trunc6.i = add nuw i16 %52, %53
  %54 = udiv i16 %.lhs.trunc6.i, %.rhs.trunc.i
  %55 = trunc i16 %54 to i8
  %56 = getelementptr inbounds i8, ptr %.04919.i, i64 2
  store i8 %55, ptr %56, align 1
  %57 = getelementptr inbounds i8, ptr %.04919.i, i64 3
  store i8 %30, ptr %57, align 1
  %58 = call i16 @llvm.umin.i16(i16 %45, i16 255)
  %59 = trunc nuw i16 %58 to i8
  store i8 %59, ptr %.04919.i, align 1
  %60 = call i16 @llvm.umin.i16(i16 %49, i16 255)
  %61 = trunc nuw i16 %60 to i8
  store i8 %61, ptr %50, align 1
  %62 = call i16 @llvm.umin.i16(i16 %54, i16 255)
  %63 = trunc nuw i16 %62 to i8
  br label %64

64:                                               ; preds = %34, %.thread2.i
  %65 = phi ptr [ %56, %34 ], [ %32, %.thread2.i ]
  %66 = phi ptr [ %57, %34 ], [ %33, %.thread2.i ]
  %67 = phi i8 [ %63, %34 ], [ 0, %.thread2.i ]
  store i8 %67, ptr %65, align 1
  store i8 %30, ptr %66, align 1
  %68 = add nuw nsw i32 %.05018.i, 1
  %69 = getelementptr inbounds i8, ptr %.020.i, i64 4
  %70 = getelementptr inbounds i8, ptr %.04919.i, i64 4
  %exitcond.not.i = icmp eq i32 %68, %27
  br i1 %exitcond.not.i, label %_ZNK2cv3hal12cpu_baseline12_GLOBAL__N_110mRGBA2RGBAIhEclEPKhPhi.exit.loopexit, label %.lr.ph.i, !llvm.loop !84

_ZNK2cv3hal12cpu_baseline12_GLOBAL__N_110mRGBA2RGBAIhEclEPKhPhi.exit.loopexit: ; preds = %64
  %.pre = load i64, ptr %5, align 8
  %.pre18 = load i64, ptr %6, align 8
  %.pre19 = load i32, ptr %7, align 4
  br label %_ZNK2cv3hal12cpu_baseline12_GLOBAL__N_110mRGBA2RGBAIhEclEPKhPhi.exit

_ZNK2cv3hal12cpu_baseline12_GLOBAL__N_110mRGBA2RGBAIhEclEPKhPhi.exit: ; preds = %_ZNK2cv3hal12cpu_baseline12_GLOBAL__N_110mRGBA2RGBAIhEclEPKhPhi.exit.loopexit, %.lr.ph.split
  %71 = phi i32 [ %.pre19, %_ZNK2cv3hal12cpu_baseline12_GLOBAL__N_110mRGBA2RGBAIhEclEPKhPhi.exit.loopexit ], [ %24, %.lr.ph.split ]
  %72 = phi i64 [ %.pre18, %_ZNK2cv3hal12cpu_baseline12_GLOBAL__N_110mRGBA2RGBAIhEclEPKhPhi.exit.loopexit ], [ %25, %.lr.ph.split ]
  %73 = phi i64 [ %.pre, %_ZNK2cv3hal12cpu_baseline12_GLOBAL__N_110mRGBA2RGBAIhEclEPKhPhi.exit.loopexit ], [ %26, %.lr.ph.split ]
  %74 = add nsw i32 %.01314, 1
  %75 = getelementptr inbounds i8, ptr %.016, i64 %73
  %76 = getelementptr inbounds i8, ptr %.01215, i64 %72
  %77 = icmp slt i32 %74, %71
  br i1 %77, label %.lr.ph.split, label %._crit_edge, !llvm.loop !85

._crit_edge:                                      ; preds = %_ZNK2cv3hal12cpu_baseline12_GLOBAL__N_110mRGBA2RGBAIhEclEPKhPhi.exit, %.lr.ph, %2
  %78 = getelementptr inbounds i8, ptr %3, i64 8
  %79 = load i32, ptr %78, align 8
  %.not.i = icmp eq i32 %79, 0
  br i1 %.not.i, label %_ZN2cv5utils5trace7details6RegionD2Ev.exit, label %80

80:                                               ; preds = %._crit_edge
  invoke void @_ZN2cv5utils5trace7details6Region7destroyEv(ptr noundef nonnull align 8 dereferenceable(12) %3)
          to label %_ZN2cv5utils5trace7details6RegionD2Ev.exit unwind label %81

81:                                               ; preds = %80
  %82 = landingpad { ptr, i32 }
          catch ptr null
  %83 = extractvalue { ptr, i32 } %82, 0
  call void @__clang_call_terminate(ptr %83) #13
  unreachable

_ZN2cv5utils5trace7details6RegionD2Ev.exit:       ; preds = %._crit_edge, %80
  ret void
}